ARM GAS  C:\Users\nicai\AppData\Local\Temp\ccw75fje.s 			page 1


   1              		.cpu cortex-m4
   2              		.arch armv7e-m
   3              		.fpu fpv4-sp-d16
   4              		.eabi_attribute 27, 1
   5              		.eabi_attribute 28, 1
   6              		.eabi_attribute 20, 1
   7              		.eabi_attribute 21, 1
   8              		.eabi_attribute 23, 3
   9              		.eabi_attribute 24, 1
  10              		.eabi_attribute 25, 1
  11              		.eabi_attribute 26, 1
  12              		.eabi_attribute 30, 1
  13              		.eabi_attribute 34, 1
  14              		.eabi_attribute 18, 4
  15              		.file	"freertos.c"
  16              		.text
  17              	.Ltext0:
  18              		.cfi_sections	.debug_frame
  19              		.file 1 "Src/freertos.c"
  20              		.section	.text.StartGimbalTask,"ax",%progbits
  21              		.align	1
  22              		.global	StartGimbalTask
  23              		.syntax unified
  24              		.thumb
  25              		.thumb_func
  27              	StartGimbalTask:
  28              	.LFB142:
   1:Src/freertos.c **** /* USER CODE BEGIN Header */
   2:Src/freertos.c **** /**
   3:Src/freertos.c ****   ******************************************************************************
   4:Src/freertos.c ****   * File Name          : freertos.c
   5:Src/freertos.c ****   * Description        : Code for freertos applications
   6:Src/freertos.c ****   ******************************************************************************
   7:Src/freertos.c ****   * @attention
   8:Src/freertos.c ****   *
   9:Src/freertos.c ****   * Copyright (c) 2024 STMicroelectronics.
  10:Src/freertos.c ****   * All rights reserved.
  11:Src/freertos.c ****   *
  12:Src/freertos.c ****   * This software is licensed under terms that can be found in the LICENSE file
  13:Src/freertos.c ****   * in the root directory of this software component.
  14:Src/freertos.c ****   * If no LICENSE file comes with this software, it is provided AS-IS.
  15:Src/freertos.c ****   *
  16:Src/freertos.c ****   ******************************************************************************
  17:Src/freertos.c ****   */
  18:Src/freertos.c **** /* USER CODE END Header */
  19:Src/freertos.c **** 
  20:Src/freertos.c **** /* Includes ------------------------------------------------------------------*/
  21:Src/freertos.c **** #include "FreeRTOS.h"
  22:Src/freertos.c **** #include "task.h"
  23:Src/freertos.c **** #include "main.h"
  24:Src/freertos.c **** #include "cmsis_os.h"
  25:Src/freertos.c **** 
  26:Src/freertos.c **** /* Private includes ----------------------------------------------------------*/
  27:Src/freertos.c **** /* USER CODE BEGIN Includes */
  28:Src/freertos.c **** 
  29:Src/freertos.c **** /* USER CODE END Includes */
  30:Src/freertos.c **** 
ARM GAS  C:\Users\nicai\AppData\Local\Temp\ccw75fje.s 			page 2


  31:Src/freertos.c **** /* Private typedef -----------------------------------------------------------*/
  32:Src/freertos.c **** /* USER CODE BEGIN PTD */
  33:Src/freertos.c **** 
  34:Src/freertos.c **** /* USER CODE END PTD */
  35:Src/freertos.c **** 
  36:Src/freertos.c **** /* Private define ------------------------------------------------------------*/
  37:Src/freertos.c **** /* USER CODE BEGIN PD */
  38:Src/freertos.c **** 
  39:Src/freertos.c **** /* USER CODE END PD */
  40:Src/freertos.c **** 
  41:Src/freertos.c **** /* Private macro -------------------------------------------------------------*/
  42:Src/freertos.c **** /* USER CODE BEGIN PM */
  43:Src/freertos.c **** 
  44:Src/freertos.c **** /* USER CODE END PM */
  45:Src/freertos.c **** 
  46:Src/freertos.c **** /* Private variables ---------------------------------------------------------*/
  47:Src/freertos.c **** /* USER CODE BEGIN Variables */
  48:Src/freertos.c **** 
  49:Src/freertos.c **** /* USER CODE END Variables */
  50:Src/freertos.c **** osThreadId GimbalTaskHandle;
  51:Src/freertos.c **** osThreadId INSTaskHandle;
  52:Src/freertos.c **** osThreadId DetectTaskHandle;
  53:Src/freertos.c **** osThreadId ControlTaskHandle;
  54:Src/freertos.c **** 
  55:Src/freertos.c **** /* Private function prototypes -----------------------------------------------*/
  56:Src/freertos.c **** /* USER CODE BEGIN FunctionPrototypes */
  57:Src/freertos.c **** 
  58:Src/freertos.c **** /* USER CODE END FunctionPrototypes */
  59:Src/freertos.c **** 
  60:Src/freertos.c **** void StartGimbalTask(void const * argument);
  61:Src/freertos.c **** void StartINSTask(void const * argument);
  62:Src/freertos.c **** void StartDetectTask(void const * argument);
  63:Src/freertos.c **** void StartChassisTask(void const * argument);
  64:Src/freertos.c **** 
  65:Src/freertos.c **** void MX_FREERTOS_Init(void); /* (MISRA C 2004 rule 8.1) */
  66:Src/freertos.c **** 
  67:Src/freertos.c **** /* GetIdleTaskMemory prototype (linked to static allocation support) */
  68:Src/freertos.c **** void vApplicationGetIdleTaskMemory( StaticTask_t **ppxIdleTaskTCBBuffer, StackType_t **ppxIdleTaskS
  69:Src/freertos.c **** 
  70:Src/freertos.c **** /* GetTimerTaskMemory prototype (linked to static allocation support) */
  71:Src/freertos.c **** void vApplicationGetTimerTaskMemory( StaticTask_t **ppxTimerTaskTCBBuffer, StackType_t **ppxTimerTa
  72:Src/freertos.c **** 
  73:Src/freertos.c **** /* USER CODE BEGIN GET_IDLE_TASK_MEMORY */
  74:Src/freertos.c **** static StaticTask_t xIdleTaskTCBBuffer;
  75:Src/freertos.c **** static StackType_t xIdleStack[configMINIMAL_STACK_SIZE];
  76:Src/freertos.c **** 
  77:Src/freertos.c **** void vApplicationGetIdleTaskMemory( StaticTask_t **ppxIdleTaskTCBBuffer, StackType_t **ppxIdleTaskS
  78:Src/freertos.c **** {
  79:Src/freertos.c ****   *ppxIdleTaskTCBBuffer = &xIdleTaskTCBBuffer;
  80:Src/freertos.c ****   *ppxIdleTaskStackBuffer = &xIdleStack[0];
  81:Src/freertos.c ****   *pulIdleTaskStackSize = configMINIMAL_STACK_SIZE;
  82:Src/freertos.c ****   /* place for user code */
  83:Src/freertos.c **** }
  84:Src/freertos.c **** /* USER CODE END GET_IDLE_TASK_MEMORY */
  85:Src/freertos.c **** 
  86:Src/freertos.c **** /* USER CODE BEGIN GET_TIMER_TASK_MEMORY */
  87:Src/freertos.c **** static StaticTask_t xTimerTaskTCBBuffer;
ARM GAS  C:\Users\nicai\AppData\Local\Temp\ccw75fje.s 			page 3


  88:Src/freertos.c **** static StackType_t xTimerStack[configTIMER_TASK_STACK_DEPTH];
  89:Src/freertos.c **** 
  90:Src/freertos.c **** void vApplicationGetTimerTaskMemory( StaticTask_t **ppxTimerTaskTCBBuffer, StackType_t **ppxTimerTa
  91:Src/freertos.c **** {
  92:Src/freertos.c ****   *ppxTimerTaskTCBBuffer = &xTimerTaskTCBBuffer;
  93:Src/freertos.c ****   *ppxTimerTaskStackBuffer = &xTimerStack[0];
  94:Src/freertos.c ****   *pulTimerTaskStackSize = configTIMER_TASK_STACK_DEPTH;
  95:Src/freertos.c ****   /* place for user code */
  96:Src/freertos.c **** }
  97:Src/freertos.c **** /* USER CODE END GET_TIMER_TASK_MEMORY */
  98:Src/freertos.c **** 
  99:Src/freertos.c **** /**
 100:Src/freertos.c ****   * @brief  FreeRTOS initialization
 101:Src/freertos.c ****   * @param  None
 102:Src/freertos.c ****   * @retval None
 103:Src/freertos.c ****   */
 104:Src/freertos.c **** void MX_FREERTOS_Init(void) {
 105:Src/freertos.c ****   /* USER CODE BEGIN Init */
 106:Src/freertos.c **** 
 107:Src/freertos.c ****   /* USER CODE END Init */
 108:Src/freertos.c **** 
 109:Src/freertos.c ****   /* USER CODE BEGIN RTOS_MUTEX */
 110:Src/freertos.c ****   /* add mutexes, ... */
 111:Src/freertos.c ****   /* USER CODE END RTOS_MUTEX */
 112:Src/freertos.c **** 
 113:Src/freertos.c ****   /* USER CODE BEGIN RTOS_SEMAPHORES */
 114:Src/freertos.c ****   /* add semaphores, ... */
 115:Src/freertos.c ****   /* USER CODE END RTOS_SEMAPHORES */
 116:Src/freertos.c **** 
 117:Src/freertos.c ****   /* USER CODE BEGIN RTOS_TIMERS */
 118:Src/freertos.c ****   /* start timers, add new ones, ... */
 119:Src/freertos.c ****   /* USER CODE END RTOS_TIMERS */
 120:Src/freertos.c **** 
 121:Src/freertos.c ****   /* USER CODE BEGIN RTOS_QUEUES */
 122:Src/freertos.c ****   /* add queues, ... */
 123:Src/freertos.c ****   /* USER CODE END RTOS_QUEUES */
 124:Src/freertos.c **** 
 125:Src/freertos.c ****   /* Create the thread(s) */
 126:Src/freertos.c ****   /* definition and creation of GimbalTask */
 127:Src/freertos.c ****   osThreadDef(GimbalTask, StartGimbalTask, osPriorityNormal, 0, 128);
 128:Src/freertos.c ****   GimbalTaskHandle = osThreadCreate(osThread(GimbalTask), NULL);
 129:Src/freertos.c **** 
 130:Src/freertos.c ****   /* definition and creation of INSTask */
 131:Src/freertos.c ****   osThreadDef(INSTask, StartINSTask, osPriorityAboveNormal, 0, 1024);
 132:Src/freertos.c ****   INSTaskHandle = osThreadCreate(osThread(INSTask), NULL);
 133:Src/freertos.c **** 
 134:Src/freertos.c ****   /* definition and creation of DetectTask */
 135:Src/freertos.c ****   osThreadDef(DetectTask, StartDetectTask, osPriorityNormal, 0, 128);
 136:Src/freertos.c ****   DetectTaskHandle = osThreadCreate(osThread(DetectTask), NULL);
 137:Src/freertos.c **** 
 138:Src/freertos.c ****   /* definition and creation of ControlTask */
 139:Src/freertos.c ****   osThreadDef(ControlTask, StartChassisTask, osPriorityHigh, 0, 1024);
 140:Src/freertos.c ****   ControlTaskHandle = osThreadCreate(osThread(ControlTask), NULL);
 141:Src/freertos.c **** 
 142:Src/freertos.c ****   /* USER CODE BEGIN RTOS_THREADS */
 143:Src/freertos.c ****   /* add threads, ... */
 144:Src/freertos.c ****   /* USER CODE END RTOS_THREADS */
ARM GAS  C:\Users\nicai\AppData\Local\Temp\ccw75fje.s 			page 4


 145:Src/freertos.c **** 
 146:Src/freertos.c **** }
 147:Src/freertos.c **** 
 148:Src/freertos.c **** /* USER CODE BEGIN Header_StartGimbalTask */
 149:Src/freertos.c **** /**
 150:Src/freertos.c ****   * @brief  Function implementing the GimbalTask thread.
 151:Src/freertos.c ****   * @param  argument: Not used
 152:Src/freertos.c ****   * @retval None
 153:Src/freertos.c ****   */
 154:Src/freertos.c **** /* USER CODE END Header_StartGimbalTask */
 155:Src/freertos.c **** void StartGimbalTask(void const * argument)
 156:Src/freertos.c **** {
  29              		.loc 1 156 1 view -0
  30              		.cfi_startproc
  31              		@ Volatile: function does not return.
  32              		@ args = 0, pretend = 0, frame = 0
  33              		@ frame_needed = 0, uses_anonymous_args = 0
  34              	.LVL0:
  35              		.loc 1 156 1 is_stmt 0 view .LVU1
  36 0000 08B5     		push	{r3, lr}
  37              	.LCFI0:
  38              		.cfi_def_cfa_offset 8
  39              		.cfi_offset 3, -8
  40              		.cfi_offset 14, -4
  41              	.LVL1:
  42              	.L2:
 157:Src/freertos.c ****   /* USER CODE BEGIN StartGimbalTask */
 158:Src/freertos.c ****   /* Infinite loop */
 159:Src/freertos.c ****   for(;;)
  43              		.loc 1 159 3 is_stmt 1 discriminator 1 view .LVU2
 160:Src/freertos.c ****   {
 161:Src/freertos.c ****     osDelay(1);
  44              		.loc 1 161 5 discriminator 1 view .LVU3
  45 0002 0120     		movs	r0, #1
  46 0004 FFF7FEFF 		bl	osDelay
  47              	.LVL2:
 159:Src/freertos.c ****   {
  48              		.loc 1 159 3 discriminator 1 view .LVU4
  49 0008 FBE7     		b	.L2
  50              		.cfi_endproc
  51              	.LFE142:
  53              		.section	.text.StartINSTask,"ax",%progbits
  54              		.align	1
  55              		.global	StartINSTask
  56              		.syntax unified
  57              		.thumb
  58              		.thumb_func
  60              	StartINSTask:
  61              	.LFB143:
 162:Src/freertos.c ****   }
 163:Src/freertos.c ****   /* USER CODE END StartGimbalTask */
 164:Src/freertos.c **** }
 165:Src/freertos.c **** 
 166:Src/freertos.c **** /* USER CODE BEGIN Header_StartINSTask */
 167:Src/freertos.c **** /**
 168:Src/freertos.c **** * @brief Function implementing the INSTask thread.
 169:Src/freertos.c **** * @param argument: Not used
ARM GAS  C:\Users\nicai\AppData\Local\Temp\ccw75fje.s 			page 5


 170:Src/freertos.c **** * @retval None
 171:Src/freertos.c **** */
 172:Src/freertos.c **** /* USER CODE END Header_StartINSTask */
 173:Src/freertos.c **** void StartINSTask(void const * argument)
 174:Src/freertos.c **** {
  62              		.loc 1 174 1 view -0
  63              		.cfi_startproc
  64              		@ Volatile: function does not return.
  65              		@ args = 0, pretend = 0, frame = 0
  66              		@ frame_needed = 0, uses_anonymous_args = 0
  67              	.LVL3:
  68              		.loc 1 174 1 is_stmt 0 view .LVU6
  69 0000 08B5     		push	{r3, lr}
  70              	.LCFI1:
  71              		.cfi_def_cfa_offset 8
  72              		.cfi_offset 3, -8
  73              		.cfi_offset 14, -4
  74              	.LVL4:
  75              	.L5:
 175:Src/freertos.c ****   /* USER CODE BEGIN StartINSTask */
 176:Src/freertos.c ****   /* Infinite loop */
 177:Src/freertos.c ****   for(;;)
  76              		.loc 1 177 3 is_stmt 1 discriminator 1 view .LVU7
 178:Src/freertos.c ****   {
 179:Src/freertos.c ****     osDelay(1);
  77              		.loc 1 179 5 discriminator 1 view .LVU8
  78 0002 0120     		movs	r0, #1
  79 0004 FFF7FEFF 		bl	osDelay
  80              	.LVL5:
 177:Src/freertos.c ****   {
  81              		.loc 1 177 3 discriminator 1 view .LVU9
  82 0008 FBE7     		b	.L5
  83              		.cfi_endproc
  84              	.LFE143:
  86              		.section	.text.StartDetectTask,"ax",%progbits
  87              		.align	1
  88              		.global	StartDetectTask
  89              		.syntax unified
  90              		.thumb
  91              		.thumb_func
  93              	StartDetectTask:
  94              	.LFB144:
 180:Src/freertos.c ****   }
 181:Src/freertos.c ****   /* USER CODE END StartINSTask */
 182:Src/freertos.c **** }
 183:Src/freertos.c **** 
 184:Src/freertos.c **** /* USER CODE BEGIN Header_StartDetectTask */
 185:Src/freertos.c **** /**
 186:Src/freertos.c **** * @brief Function implementing the DetectTask thread.
 187:Src/freertos.c **** * @param argument: Not used
 188:Src/freertos.c **** * @retval None
 189:Src/freertos.c **** */
 190:Src/freertos.c **** /* USER CODE END Header_StartDetectTask */
 191:Src/freertos.c **** void StartDetectTask(void const * argument)
 192:Src/freertos.c **** {
  95              		.loc 1 192 1 view -0
  96              		.cfi_startproc
ARM GAS  C:\Users\nicai\AppData\Local\Temp\ccw75fje.s 			page 6


  97              		@ Volatile: function does not return.
  98              		@ args = 0, pretend = 0, frame = 0
  99              		@ frame_needed = 0, uses_anonymous_args = 0
 100              	.LVL6:
 101              		.loc 1 192 1 is_stmt 0 view .LVU11
 102 0000 08B5     		push	{r3, lr}
 103              	.LCFI2:
 104              		.cfi_def_cfa_offset 8
 105              		.cfi_offset 3, -8
 106              		.cfi_offset 14, -4
 107              	.LVL7:
 108              	.L8:
 193:Src/freertos.c ****   /* USER CODE BEGIN StartDetectTask */
 194:Src/freertos.c ****   /* Infinite loop */
 195:Src/freertos.c ****   for(;;)
 109              		.loc 1 195 3 is_stmt 1 discriminator 1 view .LVU12
 196:Src/freertos.c ****   {
 197:Src/freertos.c ****     osDelay(1);
 110              		.loc 1 197 5 discriminator 1 view .LVU13
 111 0002 0120     		movs	r0, #1
 112 0004 FFF7FEFF 		bl	osDelay
 113              	.LVL8:
 195:Src/freertos.c ****   {
 114              		.loc 1 195 3 discriminator 1 view .LVU14
 115 0008 FBE7     		b	.L8
 116              		.cfi_endproc
 117              	.LFE144:
 119              		.section	.text.StartChassisTask,"ax",%progbits
 120              		.align	1
 121              		.global	StartChassisTask
 122              		.syntax unified
 123              		.thumb
 124              		.thumb_func
 126              	StartChassisTask:
 127              	.LFB145:
 198:Src/freertos.c ****   }
 199:Src/freertos.c ****   /* USER CODE END StartDetectTask */
 200:Src/freertos.c **** }
 201:Src/freertos.c **** 
 202:Src/freertos.c **** /* USER CODE BEGIN Header_StartChassisTask */
 203:Src/freertos.c **** /**
 204:Src/freertos.c **** * @brief Function implementing the ControlTask thread.
 205:Src/freertos.c **** * @param argument: Not used
 206:Src/freertos.c **** * @retval None
 207:Src/freertos.c **** */
 208:Src/freertos.c **** /* USER CODE END Header_StartChassisTask */
 209:Src/freertos.c **** void StartChassisTask(void const * argument)
 210:Src/freertos.c **** {
 128              		.loc 1 210 1 view -0
 129              		.cfi_startproc
 130              		@ Volatile: function does not return.
 131              		@ args = 0, pretend = 0, frame = 0
 132              		@ frame_needed = 0, uses_anonymous_args = 0
 133              	.LVL9:
 134              		.loc 1 210 1 is_stmt 0 view .LVU16
 135 0000 08B5     		push	{r3, lr}
 136              	.LCFI3:
ARM GAS  C:\Users\nicai\AppData\Local\Temp\ccw75fje.s 			page 7


 137              		.cfi_def_cfa_offset 8
 138              		.cfi_offset 3, -8
 139              		.cfi_offset 14, -4
 140              	.LVL10:
 141              	.L11:
 211:Src/freertos.c ****   /* USER CODE BEGIN StartChassisTask */
 212:Src/freertos.c ****   /* Infinite loop */
 213:Src/freertos.c ****   for(;;)
 142              		.loc 1 213 3 is_stmt 1 discriminator 1 view .LVU17
 214:Src/freertos.c ****   {
 215:Src/freertos.c ****     osDelay(1);
 143              		.loc 1 215 5 discriminator 1 view .LVU18
 144 0002 0120     		movs	r0, #1
 145 0004 FFF7FEFF 		bl	osDelay
 146              	.LVL11:
 213:Src/freertos.c ****   {
 147              		.loc 1 213 3 discriminator 1 view .LVU19
 148 0008 FBE7     		b	.L11
 149              		.cfi_endproc
 150              	.LFE145:
 152              		.section	.text.vApplicationGetIdleTaskMemory,"ax",%progbits
 153              		.align	1
 154              		.global	vApplicationGetIdleTaskMemory
 155              		.syntax unified
 156              		.thumb
 157              		.thumb_func
 159              	vApplicationGetIdleTaskMemory:
 160              	.LVL12:
 161              	.LFB139:
  78:Src/freertos.c ****   *ppxIdleTaskTCBBuffer = &xIdleTaskTCBBuffer;
 162              		.loc 1 78 1 view -0
 163              		.cfi_startproc
 164              		@ args = 0, pretend = 0, frame = 0
 165              		@ frame_needed = 0, uses_anonymous_args = 0
 166              		@ link register save eliminated.
  79:Src/freertos.c ****   *ppxIdleTaskStackBuffer = &xIdleStack[0];
 167              		.loc 1 79 3 view .LVU21
  79:Src/freertos.c ****   *ppxIdleTaskStackBuffer = &xIdleStack[0];
 168              		.loc 1 79 25 is_stmt 0 view .LVU22
 169 0000 034B     		ldr	r3, .L14
 170 0002 0360     		str	r3, [r0]
  80:Src/freertos.c ****   *pulIdleTaskStackSize = configMINIMAL_STACK_SIZE;
 171              		.loc 1 80 3 is_stmt 1 view .LVU23
  80:Src/freertos.c ****   *pulIdleTaskStackSize = configMINIMAL_STACK_SIZE;
 172              		.loc 1 80 27 is_stmt 0 view .LVU24
 173 0004 034B     		ldr	r3, .L14+4
 174 0006 0B60     		str	r3, [r1]
  81:Src/freertos.c ****   /* place for user code */
 175              		.loc 1 81 3 is_stmt 1 view .LVU25
  81:Src/freertos.c ****   /* place for user code */
 176              		.loc 1 81 25 is_stmt 0 view .LVU26
 177 0008 8023     		movs	r3, #128
 178 000a 1360     		str	r3, [r2]
  83:Src/freertos.c **** /* USER CODE END GET_IDLE_TASK_MEMORY */
 179              		.loc 1 83 1 view .LVU27
 180 000c 7047     		bx	lr
 181              	.L15:
ARM GAS  C:\Users\nicai\AppData\Local\Temp\ccw75fje.s 			page 8


 182 000e 00BF     		.align	2
 183              	.L14:
 184 0010 00000000 		.word	xIdleTaskTCBBuffer
 185 0014 00000000 		.word	xIdleStack
 186              		.cfi_endproc
 187              	.LFE139:
 189              		.section	.text.vApplicationGetTimerTaskMemory,"ax",%progbits
 190              		.align	1
 191              		.global	vApplicationGetTimerTaskMemory
 192              		.syntax unified
 193              		.thumb
 194              		.thumb_func
 196              	vApplicationGetTimerTaskMemory:
 197              	.LVL13:
 198              	.LFB140:
  91:Src/freertos.c ****   *ppxTimerTaskTCBBuffer = &xTimerTaskTCBBuffer;
 199              		.loc 1 91 1 is_stmt 1 view -0
 200              		.cfi_startproc
 201              		@ args = 0, pretend = 0, frame = 0
 202              		@ frame_needed = 0, uses_anonymous_args = 0
 203              		@ link register save eliminated.
  92:Src/freertos.c ****   *ppxTimerTaskStackBuffer = &xTimerStack[0];
 204              		.loc 1 92 3 view .LVU29
  92:Src/freertos.c ****   *ppxTimerTaskStackBuffer = &xTimerStack[0];
 205              		.loc 1 92 26 is_stmt 0 view .LVU30
 206 0000 034B     		ldr	r3, .L17
 207 0002 0360     		str	r3, [r0]
  93:Src/freertos.c ****   *pulTimerTaskStackSize = configTIMER_TASK_STACK_DEPTH;
 208              		.loc 1 93 3 is_stmt 1 view .LVU31
  93:Src/freertos.c ****   *pulTimerTaskStackSize = configTIMER_TASK_STACK_DEPTH;
 209              		.loc 1 93 28 is_stmt 0 view .LVU32
 210 0004 034B     		ldr	r3, .L17+4
 211 0006 0B60     		str	r3, [r1]
  94:Src/freertos.c ****   /* place for user code */
 212              		.loc 1 94 3 is_stmt 1 view .LVU33
  94:Src/freertos.c ****   /* place for user code */
 213              		.loc 1 94 26 is_stmt 0 view .LVU34
 214 0008 4FF48073 		mov	r3, #256
 215 000c 1360     		str	r3, [r2]
  96:Src/freertos.c **** /* USER CODE END GET_TIMER_TASK_MEMORY */
 216              		.loc 1 96 1 view .LVU35
 217 000e 7047     		bx	lr
 218              	.L18:
 219              		.align	2
 220              	.L17:
 221 0010 00000000 		.word	xTimerTaskTCBBuffer
 222 0014 00000000 		.word	xTimerStack
 223              		.cfi_endproc
 224              	.LFE140:
 226              		.section	.text.MX_FREERTOS_Init,"ax",%progbits
 227              		.align	1
 228              		.global	MX_FREERTOS_Init
 229              		.syntax unified
 230              		.thumb
 231              		.thumb_func
 233              	MX_FREERTOS_Init:
 234              	.LFB141:
ARM GAS  C:\Users\nicai\AppData\Local\Temp\ccw75fje.s 			page 9


 104:Src/freertos.c ****   /* USER CODE BEGIN Init */
 235              		.loc 1 104 29 is_stmt 1 view -0
 236              		.cfi_startproc
 237              		@ args = 0, pretend = 0, frame = 112
 238              		@ frame_needed = 0, uses_anonymous_args = 0
 239 0000 10B5     		push	{r4, lr}
 240              	.LCFI4:
 241              		.cfi_def_cfa_offset 8
 242              		.cfi_offset 4, -8
 243              		.cfi_offset 14, -4
 244 0002 9CB0     		sub	sp, sp, #112
 245              	.LCFI5:
 246              		.cfi_def_cfa_offset 120
 127:Src/freertos.c ****   GimbalTaskHandle = osThreadCreate(osThread(GimbalTask), NULL);
 247              		.loc 1 127 3 view .LVU37
 248 0004 244C     		ldr	r4, .L21
 249 0006 0DF1540C 		add	ip, sp, #84
 250 000a A646     		mov	lr, r4
 251 000c BEE80F00 		ldmia	lr!, {r0, r1, r2, r3}
 252 0010 ACE80F00 		stmia	ip!, {r0, r1, r2, r3}
 253 0014 9EE80700 		ldm	lr, {r0, r1, r2}
 254 0018 8CE80700 		stm	ip, {r0, r1, r2}
 128:Src/freertos.c **** 
 255              		.loc 1 128 3 view .LVU38
 128:Src/freertos.c **** 
 256              		.loc 1 128 22 is_stmt 0 view .LVU39
 257 001c 0021     		movs	r1, #0
 258 001e 15A8     		add	r0, sp, #84
 259 0020 FFF7FEFF 		bl	osThreadCreate
 260              	.LVL14:
 128:Src/freertos.c **** 
 261              		.loc 1 128 20 view .LVU40
 262 0024 1D4B     		ldr	r3, .L21+4
 263 0026 1860     		str	r0, [r3]
 131:Src/freertos.c ****   INSTaskHandle = osThreadCreate(osThread(INSTask), NULL);
 264              		.loc 1 131 3 is_stmt 1 view .LVU41
 265 0028 0DF1380C 		add	ip, sp, #56
 266 002c 04F11C0E 		add	lr, r4, #28
 267 0030 BEE80F00 		ldmia	lr!, {r0, r1, r2, r3}
 268 0034 ACE80F00 		stmia	ip!, {r0, r1, r2, r3}
 269 0038 9EE80700 		ldm	lr, {r0, r1, r2}
 270 003c 8CE80700 		stm	ip, {r0, r1, r2}
 132:Src/freertos.c **** 
 271              		.loc 1 132 3 view .LVU42
 132:Src/freertos.c **** 
 272              		.loc 1 132 19 is_stmt 0 view .LVU43
 273 0040 0021     		movs	r1, #0
 274 0042 0EA8     		add	r0, sp, #56
 275 0044 FFF7FEFF 		bl	osThreadCreate
 276              	.LVL15:
 132:Src/freertos.c **** 
 277              		.loc 1 132 17 view .LVU44
 278 0048 154B     		ldr	r3, .L21+8
 279 004a 1860     		str	r0, [r3]
 135:Src/freertos.c ****   DetectTaskHandle = osThreadCreate(osThread(DetectTask), NULL);
 280              		.loc 1 135 3 is_stmt 1 view .LVU45
 281 004c 0DF11C0C 		add	ip, sp, #28
ARM GAS  C:\Users\nicai\AppData\Local\Temp\ccw75fje.s 			page 10


 282 0050 04F1380E 		add	lr, r4, #56
 283 0054 BEE80F00 		ldmia	lr!, {r0, r1, r2, r3}
 284 0058 ACE80F00 		stmia	ip!, {r0, r1, r2, r3}
 285 005c 9EE80700 		ldm	lr, {r0, r1, r2}
 286 0060 8CE80700 		stm	ip, {r0, r1, r2}
 136:Src/freertos.c **** 
 287              		.loc 1 136 3 view .LVU46
 136:Src/freertos.c **** 
 288              		.loc 1 136 22 is_stmt 0 view .LVU47
 289 0064 0021     		movs	r1, #0
 290 0066 07A8     		add	r0, sp, #28
 291 0068 FFF7FEFF 		bl	osThreadCreate
 292              	.LVL16:
 136:Src/freertos.c **** 
 293              		.loc 1 136 20 view .LVU48
 294 006c 0D4B     		ldr	r3, .L21+12
 295 006e 1860     		str	r0, [r3]
 139:Src/freertos.c ****   ControlTaskHandle = osThreadCreate(osThread(ControlTask), NULL);
 296              		.loc 1 139 3 is_stmt 1 view .LVU49
 297 0070 EE46     		mov	lr, sp
 298 0072 04F1540C 		add	ip, r4, #84
 299 0076 BCE80F00 		ldmia	ip!, {r0, r1, r2, r3}
 300 007a AEE80F00 		stmia	lr!, {r0, r1, r2, r3}
 301 007e 9CE80700 		ldm	ip, {r0, r1, r2}
 302 0082 8EE80700 		stm	lr, {r0, r1, r2}
 140:Src/freertos.c **** 
 303              		.loc 1 140 3 view .LVU50
 140:Src/freertos.c **** 
 304              		.loc 1 140 23 is_stmt 0 view .LVU51
 305 0086 0021     		movs	r1, #0
 306 0088 6846     		mov	r0, sp
 307 008a FFF7FEFF 		bl	osThreadCreate
 308              	.LVL17:
 140:Src/freertos.c **** 
 309              		.loc 1 140 21 view .LVU52
 310 008e 064B     		ldr	r3, .L21+16
 311 0090 1860     		str	r0, [r3]
 146:Src/freertos.c **** 
 312              		.loc 1 146 1 view .LVU53
 313 0092 1CB0     		add	sp, sp, #112
 314              	.LCFI6:
 315              		.cfi_def_cfa_offset 8
 316              		@ sp needed
 317 0094 10BD     		pop	{r4, pc}
 318              	.L22:
 319 0096 00BF     		.align	2
 320              	.L21:
 321 0098 00000000 		.word	.LANCHOR0
 322 009c 00000000 		.word	GimbalTaskHandle
 323 00a0 00000000 		.word	INSTaskHandle
 324 00a4 00000000 		.word	DetectTaskHandle
 325 00a8 00000000 		.word	ControlTaskHandle
 326              		.cfi_endproc
 327              	.LFE141:
 329              		.section	.rodata.str1.4,"aMS",%progbits,1
 330              		.align	2
 331              	.LC6:
ARM GAS  C:\Users\nicai\AppData\Local\Temp\ccw75fje.s 			page 11


 332 0000 436F6E74 		.ascii	"ControlTask\000"
 332      726F6C54 
 332      61736B00 
 333              		.align	2
 334              	.LC4:
 335 000c 44657465 		.ascii	"DetectTask\000"
 335      63745461 
 335      736B00
 336 0017 00       		.align	2
 337              	.LC2:
 338 0018 494E5354 		.ascii	"INSTask\000"
 338      61736B00 
 339              		.align	2
 340              	.LC0:
 341 0020 47696D62 		.ascii	"GimbalTask\000"
 341      616C5461 
 341      736B00
 342              		.section	.bss.xTimerStack,"aw",%nobits
 343              		.align	2
 346              	xTimerStack:
 347 0000 00000000 		.space	1024
 347      00000000 
 347      00000000 
 347      00000000 
 347      00000000 
 348              		.section	.bss.xTimerTaskTCBBuffer,"aw",%nobits
 349              		.align	2
 352              	xTimerTaskTCBBuffer:
 353 0000 00000000 		.space	84
 353      00000000 
 353      00000000 
 353      00000000 
 353      00000000 
 354              		.section	.bss.xIdleStack,"aw",%nobits
 355              		.align	2
 358              	xIdleStack:
 359 0000 00000000 		.space	512
 359      00000000 
 359      00000000 
 359      00000000 
 359      00000000 
 360              		.section	.bss.xIdleTaskTCBBuffer,"aw",%nobits
 361              		.align	2
 364              	xIdleTaskTCBBuffer:
 365 0000 00000000 		.space	84
 365      00000000 
 365      00000000 
 365      00000000 
 365      00000000 
 366              		.global	ControlTaskHandle
 367              		.section	.bss.ControlTaskHandle,"aw",%nobits
 368              		.align	2
 371              	ControlTaskHandle:
 372 0000 00000000 		.space	4
 373              		.global	DetectTaskHandle
 374              		.section	.bss.DetectTaskHandle,"aw",%nobits
 375              		.align	2
ARM GAS  C:\Users\nicai\AppData\Local\Temp\ccw75fje.s 			page 12


 378              	DetectTaskHandle:
 379 0000 00000000 		.space	4
 380              		.global	INSTaskHandle
 381              		.section	.bss.INSTaskHandle,"aw",%nobits
 382              		.align	2
 385              	INSTaskHandle:
 386 0000 00000000 		.space	4
 387              		.global	GimbalTaskHandle
 388              		.section	.bss.GimbalTaskHandle,"aw",%nobits
 389              		.align	2
 392              	GimbalTaskHandle:
 393 0000 00000000 		.space	4
 394              		.section	.rodata
 395              		.align	2
 396              		.set	.LANCHOR0,. + 0
 397              	.LC8:
 398 0000 20000000 		.word	.LC0
 399 0004 00000000 		.word	StartGimbalTask
 400 0008 0000     		.short	0
 401 000a 0000     		.space	2
 402 000c 00000000 		.word	0
 403 0010 80000000 		.word	128
 404 0014 00000000 		.word	0
 405 0018 00000000 		.word	0
 406              	.LC9:
 407 001c 18000000 		.word	.LC2
 408 0020 00000000 		.word	StartINSTask
 409 0024 0100     		.short	1
 410 0026 0000     		.space	2
 411 0028 00000000 		.word	0
 412 002c 00040000 		.word	1024
 413 0030 00000000 		.word	0
 414 0034 00000000 		.word	0
 415              	.LC10:
 416 0038 0C000000 		.word	.LC4
 417 003c 00000000 		.word	StartDetectTask
 418 0040 0000     		.short	0
 419 0042 0000     		.space	2
 420 0044 00000000 		.word	0
 421 0048 80000000 		.word	128
 422 004c 00000000 		.word	0
 423 0050 00000000 		.word	0
 424              	.LC11:
 425 0054 00000000 		.word	.LC6
 426 0058 00000000 		.word	StartChassisTask
 427 005c 0200     		.short	2
 428 005e 0000     		.space	2
 429 0060 00000000 		.word	0
 430 0064 00040000 		.word	1024
 431 0068 00000000 		.word	0
 432 006c 00000000 		.word	0
 433              		.text
 434              	.Letext0:
 435              		.file 2 "d:\\msys2\\mingw64\\arm-none-eabi\\include\\machine\\_default_types.h"
 436              		.file 3 "d:\\msys2\\mingw64\\arm-none-eabi\\include\\sys\\_stdint.h"
 437              		.file 4 "Middlewares/Third_Party/FreeRTOS/Source/portable/GCC/ARM_CM4F/portmacro.h"
 438              		.file 5 "Middlewares/Third_Party/FreeRTOS/Source/include/FreeRTOS.h"
ARM GAS  C:\Users\nicai\AppData\Local\Temp\ccw75fje.s 			page 13


 439              		.file 6 "Middlewares/Third_Party/FreeRTOS/Source/include/task.h"
 440              		.file 7 "Middlewares/Third_Party/FreeRTOS/Source/CMSIS_RTOS/cmsis_os.h"
ARM GAS  C:\Users\nicai\AppData\Local\Temp\ccw75fje.s 			page 14

